; Function Attrs: mustprogress uwtable
define noundef ptr @ucol_clone_75(ptr noundef %coll, ptr noundef %status) local_unnamed_addr #0 {
entry:
  %cmp.i = icmp eq ptr %status, null
  br i1 %cmp.i, label %ucol_safeClone_75.exit, label %lor.lhs.false.i

lor.lhs.false.i:                                  ; preds = %entry
  %0 = load i32, ptr %status, align 4
  %cmp.i.i = icmp slt i32 %0, 1
  br i1 %cmp.i.i, label %if.end.i, label %ucol_safeClone_75.exit

if.end.i:                                         ; preds = %lor.lhs.false.i
  %cmp1.i = icmp eq ptr %coll, null
  br i1 %cmp1.i, label %return.sink.split.i, label %if.end3.i

if.end3.i:                                        ; preds = %if.end.i
  %vtable.i = load ptr, ptr %coll, align 8
  %vfn.i = getelementptr inbounds i8, ptr %vtable.i, i64 40
  %1 = load ptr, ptr %vfn.i, align 8
  %call11.i = tail call noundef ptr %1(ptr noundef nonnull align 8 dereferenceable(8) %coll)
  %cmp12.i = icmp eq ptr %call11.i, null
  br i1 %cmp12.i, label %return.sink.split.i, label %ucol_safeClone_75.exit

return.sink.split.i:                              ; preds = %if.end3.i, %if.end.i
  %.sink.i = phi i32 [ 1, %if.end.i ], [ 7, %if.end3.i ]
  store i32 %.sink.i, ptr %status, align 4
  br label %ucol_safeClone_75.exit

ucol_safeClone_75.exit:                           ; preds = %entry, %lor.lhs.false.i, %if.end3.i, %return.sink.split.i
  %retval.0.i = phi ptr [ null, %lor.lhs.false.i ], [ null, %entry ], [ null, %return.sink.split.i ], [ %call11.i, %if.end3.i ]
  ret ptr %retval.0.i
}